target datalayout = "e-m:e-p270:32:32-p271:32:32-p272:64:64-i64:64-i128:128-f80:128-n8:16:32:64-S128"
target triple = "x86_64-pc-linux-gnu"

%struct.lv_subject_t = type { %struct.lv_ll_t, %union.lv_subject_value_t, %union.lv_subject_value_t, ptr, i32 }
%struct.lv_ll_t = type { i32, ptr, ptr }
%union.lv_subject_value_t = type { ptr }

; Function Attrs: nounwind uwtable
define ptr @lv_subject_get_group_element(ptr noundef %0, i32 noundef %1) #0 {
  %3 = alloca ptr, align 8
  %4 = alloca ptr, align 8
  %5 = alloca i32, align 4
  store ptr %0, ptr %4, align 8, !tbaa !3
  store i32 %1, ptr %5, align 4, !tbaa !7
  %6 = load ptr, ptr %4, align 8, !tbaa !3
  %7 = getelementptr inbounds nuw %struct.lv_subject_t, ptr %6, i32 0, i32 4
  %8 = load i32, ptr %7, align 8
  %9 = and i32 %8, 15
  %10 = icmp ne i32 %9, 5
  br i1 %10, label %11, label %14

11:                                               ; preds = %2
  br label %12

12:                                               ; preds = %11
  br label %13

13:                                               ; preds = %12
  store ptr null, ptr %3, align 8
  br label %35

14:                                               ; preds = %2
  %15 = load i32, ptr %5, align 4, !tbaa !7
  %16 = load ptr, ptr %4, align 8, !tbaa !3
  %17 = getelementptr inbounds nuw %struct.lv_subject_t, ptr %16, i32 0, i32 4
  %18 = load i32, ptr %17, align 8
  %19 = lshr i32 %18, 4
  %20 = and i32 %19, 16777215
  %21 = icmp sge i32 %15, %20
  br i1 %21, label %22, label %23

22:                                               ; preds = %14
  store ptr null, ptr %3, align 8
  br label %35

23:                                               ; preds = %14
  %24 = load i32, ptr %5, align 4, !tbaa !7
  %25 = icmp slt i32 %24, 0
  br i1 %25, label %26, label %27

26:                                               ; preds = %23
  store ptr null, ptr %3, align 8
  br label %35

27:                                               ; preds = %23
  %28 = load ptr, ptr %4, align 8, !tbaa !3
  %29 = getelementptr inbounds nuw %struct.lv_subject_t, ptr %28, i32 0, i32 1
  %30 = load ptr, ptr %29, align 8, !tbaa !9
  %31 = load i32, ptr %5, align 4, !tbaa !7
  %32 = sext i32 %31 to i64
  %33 = getelementptr inbounds ptr, ptr %30, i64 %32
  %34 = load ptr, ptr %33, align 8, !tbaa !3
  store ptr %34, ptr %3, align 8
  br label %35

35:                                               ; preds = %27, %26, %22, %13
  %36 = load ptr, ptr %3, align 8
  ret ptr %36
}