; Function Attrs: mustprogress nofree norecurse nosync nounwind willreturn memory(read, inaccessiblemem: none) uwtable
define ptr @lv_subject_get_group_element(ptr noundef readonly captures(none) %0, i32 noundef %1) local_unnamed_addr #6 {
  %3 = getelementptr inbounds nuw i8, ptr %0, i64 48
  %4 = load i32, ptr %3, align 8
  %5 = and i32 %4, 15
  %.not = icmp eq i32 %5, 5
  br i1 %.not, label %6, label %15

6:                                                ; preds = %2
  %7 = lshr i32 %4, 4
  %8 = and i32 %7, 16777215
  %or.cond.not = icmp ult i32 %1, %8
  br i1 %or.cond.not, label %9, label %15

9:                                                ; preds = %6
  %10 = getelementptr inbounds nuw i8, ptr %0, i64 24
  %11 = load ptr, ptr %10, align 8, !tbaa !3
  %12 = zext nneg i32 %1 to i64
  %13 = getelementptr inbounds nuw ptr, ptr %11, i64 %12
  %14 = load ptr, ptr %13, align 8, !tbaa !7
  br label %15

15:                                               ; preds = %6, %2, %9
  %.0 = phi ptr [ %14, %9 ], [ null, %2 ], [ null, %6 ]
  ret ptr %.0
}